target datalayout = "e-m:e-p270:32:32-p271:32:32-p272:64:64-i64:64-i128:128-f80:128-n8:16:32:64-S128"
target triple = "x86_64-pc-linux-gnu"

%struct.JNINativeInterface_ = type { ptr, ptr, ptr, ptr, ptr, ptr, ptr, ptr, ptr, ptr, ptr, ptr, ptr, ptr, ptr, ptr, ptr, ptr, ptr, ptr, ptr, ptr, ptr, ptr, ptr, ptr, ptr, ptr, ptr, ptr, ptr, ptr, ptr, ptr, ptr, ptr, ptr, ptr, ptr, ptr, ptr, ptr, ptr, ptr, ptr, ptr, ptr, ptr, ptr, ptr, ptr, ptr, ptr, ptr, ptr, ptr, ptr, ptr, ptr, ptr, ptr, ptr, ptr, ptr, ptr, ptr, ptr, ptr, ptr, ptr, ptr, ptr, ptr, ptr, ptr, ptr, ptr, ptr, ptr, ptr, ptr, ptr, ptr, ptr, ptr, ptr, ptr, ptr, ptr, ptr, ptr, ptr, ptr, ptr, ptr, ptr, ptr, ptr, ptr, ptr, ptr, ptr, ptr, ptr, ptr, ptr, ptr, ptr, ptr, ptr, ptr, ptr, ptr, ptr, ptr, ptr, ptr, ptr, ptr, ptr, ptr, ptr, ptr, ptr, ptr, ptr, ptr, ptr, ptr, ptr, ptr, ptr, ptr, ptr, ptr, ptr, ptr, ptr, ptr, ptr, ptr, ptr, ptr, ptr, ptr, ptr, ptr, ptr, ptr, ptr, ptr, ptr, ptr, ptr, ptr, ptr, ptr, ptr, ptr, ptr, ptr, ptr, ptr, ptr, ptr, ptr, ptr, ptr, ptr, ptr, ptr, ptr, ptr, ptr, ptr, ptr, ptr, ptr, ptr, ptr, ptr, ptr, ptr, ptr, ptr, ptr, ptr, ptr, ptr, ptr, ptr, ptr, ptr, ptr, ptr, ptr, ptr, ptr, ptr, ptr, ptr, ptr, ptr, ptr, ptr, ptr, ptr, ptr, ptr, ptr, ptr, ptr, ptr, ptr, ptr, ptr, ptr, ptr, ptr, ptr, ptr, ptr, ptr, ptr, ptr, ptr, ptr, ptr, ptr, ptr, ptr, ptr, ptr, ptr, ptr }
%struct.CK_X9_42_DH2_DERIVE_PARAMS = type { i64, i64, ptr, i64, ptr, i64, i64, i64, ptr }

@.str.17 = private unnamed_addr constant [2 x i8] c"J\00", align 1
@.str.24 = private unnamed_addr constant [3 x i8] c"[B\00", align 1
@.str.89 = private unnamed_addr constant [4 x i8] c"kdf\00", align 1
@.str.91 = private unnamed_addr constant [12 x i8] c"pPublicData\00", align 1
@.str.93 = private unnamed_addr constant [17 x i8] c"ulPrivateDataLen\00", align 1
@.str.94 = private unnamed_addr constant [13 x i8] c"hPrivateData\00", align 1
@.str.95 = private unnamed_addr constant [13 x i8] c"pPublicData2\00", align 1
@.str.97 = private unnamed_addr constant [11 x i8] c"pOtherInfo\00", align 1
@.str.98 = private unnamed_addr constant [55 x i8] c"sun/security/pkcs11/wrapper/CK_X9_42_DH2_DERIVE_PARAMS\00", align 1

; Function Attrs: nounwind uwtable
define hidden ptr @jX942Dh2DeriveParamToCKX942Dh2DeriveParamPtr(ptr noundef %0, ptr noundef %1, ptr noundef %2) #0 {
  %4 = alloca ptr, align 8
  %5 = alloca ptr, align 8
  %6 = alloca ptr, align 8
  %7 = alloca ptr, align 8
  %8 = alloca ptr, align 8
  %9 = alloca ptr, align 8
  %10 = alloca ptr, align 8
  %11 = alloca i64, align 8
  %12 = alloca i64, align 8
  %13 = alloca i64, align 8
  %14 = alloca ptr, align 8
  %15 = alloca ptr, align 8
  %16 = alloca ptr, align 8
  store ptr %0, ptr %5, align 8
  store ptr %1, ptr %6, align 8
  store ptr %2, ptr %7, align 8
  %17 = load ptr, ptr %7, align 8
  %18 = icmp ne ptr %17, null
  br i1 %18, label %19, label %21

19:                                               ; preds = %3
  %20 = load ptr, ptr %7, align 8
  store i64 0, ptr %20, align 8
  br label %21

21:                                               ; preds = %19, %3
  %22 = load ptr, ptr %5, align 8
  %23 = load ptr, ptr %22, align 8
  %24 = getelementptr inbounds %struct.JNINativeInterface_, ptr %23, i32 0, i32 6
  %25 = load ptr, ptr %24, align 8
  %26 = load ptr, ptr %5, align 8
  %27 = call ptr %25(ptr noundef %26, ptr noundef @.str.98)
  store ptr %27, ptr %9, align 8
  %28 = load ptr, ptr %9, align 8
  %29 = icmp eq ptr %28, null
  br i1 %29, label %30, label %31

30:                                               ; preds = %21
  store ptr null, ptr %4, align 8
  br label %223

31:                                               ; preds = %21
  %32 = load ptr, ptr %5, align 8
  %33 = load ptr, ptr %32, align 8
  %34 = getelementptr inbounds %struct.JNINativeInterface_, ptr %33, i32 0, i32 94
  %35 = load ptr, ptr %34, align 8
  %36 = load ptr, ptr %5, align 8
  %37 = load ptr, ptr %9, align 8
  %38 = call ptr %35(ptr noundef %36, ptr noundef %37, ptr noundef @.str.89, ptr noundef @.str.17)
  store ptr %38, ptr %10, align 8
  %39 = load ptr, ptr %10, align 8
  %40 = icmp eq ptr %39, null
  br i1 %40, label %41, label %42

41:                                               ; preds = %31
  store ptr null, ptr %4, align 8
  br label %223

42:                                               ; preds = %31
  %43 = load ptr, ptr %5, align 8
  %44 = load ptr, ptr %43, align 8
  %45 = getelementptr inbounds %struct.JNINativeInterface_, ptr %44, i32 0, i32 101
  %46 = load ptr, ptr %45, align 8
  %47 = load ptr, ptr %5, align 8
  %48 = load ptr, ptr %6, align 8
  %49 = load ptr, ptr %10, align 8
  %50 = call i64 %46(ptr noundef %47, ptr noundef %48, ptr noundef %49)
  store i64 %50, ptr %11, align 8
  %51 = load ptr, ptr %5, align 8
  %52 = load ptr, ptr %51, align 8
  %53 = getelementptr inbounds %struct.JNINativeInterface_, ptr %52, i32 0, i32 94
  %54 = load ptr, ptr %53, align 8
  %55 = load ptr, ptr %5, align 8
  %56 = load ptr, ptr %9, align 8
  %57 = call ptr %54(ptr noundef %55, ptr noundef %56, ptr noundef @.str.97, ptr noundef @.str.24)
  store ptr %57, ptr %10, align 8
  %58 = load ptr, ptr %10, align 8
  %59 = icmp eq ptr %58, null
  br i1 %59, label %60, label %61

60:                                               ; preds = %42
  store ptr null, ptr %4, align 8
  br label %223

61:                                               ; preds = %42
  %62 = load ptr, ptr %5, align 8
  %63 = load ptr, ptr %62, align 8
  %64 = getelementptr inbounds %struct.JNINativeInterface_, ptr %63, i32 0, i32 95
  %65 = load ptr, ptr %64, align 8
  %66 = load ptr, ptr %5, align 8
  %67 = load ptr, ptr %6, align 8
  %68 = load ptr, ptr %10, align 8
  %69 = call ptr %65(ptr noundef %66, ptr noundef %67, ptr noundef %68)
  store ptr %69, ptr %14, align 8
  %70 = load ptr, ptr %5, align 8
  %71 = load ptr, ptr %70, align 8
  %72 = getelementptr inbounds %struct.JNINativeInterface_, ptr %71, i32 0, i32 94
  %73 = load ptr, ptr %72, align 8
  %74 = load ptr, ptr %5, align 8
  %75 = load ptr, ptr %9, align 8
  %76 = call ptr %73(ptr noundef %74, ptr noundef %75, ptr noundef @.str.91, ptr noundef @.str.24)
  store ptr %76, ptr %10, align 8
  %77 = load ptr, ptr %10, align 8
  %78 = icmp eq ptr %77, null
  br i1 %78, label %79, label %80

79:                                               ; preds = %61
  store ptr null, ptr %4, align 8
  br label %223

80:                                               ; preds = %61
  %81 = load ptr, ptr %5, align 8
  %82 = load ptr, ptr %81, align 8
  %83 = getelementptr inbounds %struct.JNINativeInterface_, ptr %82, i32 0, i32 95
  %84 = load ptr, ptr %83, align 8
  %85 = load ptr, ptr %5, align 8
  %86 = load ptr, ptr %6, align 8
  %87 = load ptr, ptr %10, align 8
  %88 = call ptr %84(ptr noundef %85, ptr noundef %86, ptr noundef %87)
  store ptr %88, ptr %15, align 8
  %89 = load ptr, ptr %5, align 8
  %90 = load ptr, ptr %89, align 8
  %91 = getelementptr inbounds %struct.JNINativeInterface_, ptr %90, i32 0, i32 94
  %92 = load ptr, ptr %91, align 8
  %93 = load ptr, ptr %5, align 8
  %94 = load ptr, ptr %9, align 8
  %95 = call ptr %92(ptr noundef %93, ptr noundef %94, ptr noundef @.str.93, ptr noundef @.str.17)
  store ptr %95, ptr %10, align 8
  %96 = load ptr, ptr %10, align 8
  %97 = icmp eq ptr %96, null
  br i1 %97, label %98, label %99

98:                                               ; preds = %80
  store ptr null, ptr %4, align 8
  br label %223

99:                                               ; preds = %80
  %100 = load ptr, ptr %5, align 8
  %101 = load ptr, ptr %100, align 8
  %102 = getelementptr inbounds %struct.JNINativeInterface_, ptr %101, i32 0, i32 101
  %103 = load ptr, ptr %102, align 8
  %104 = load ptr, ptr %5, align 8
  %105 = load ptr, ptr %6, align 8
  %106 = load ptr, ptr %10, align 8
  %107 = call i64 %103(ptr noundef %104, ptr noundef %105, ptr noundef %106)
  store i64 %107, ptr %12, align 8
  %108 = load ptr, ptr %5, align 8
  %109 = load ptr, ptr %108, align 8
  %110 = getelementptr inbounds %struct.JNINativeInterface_, ptr %109, i32 0, i32 94
  %111 = load ptr, ptr %110, align 8
  %112 = load ptr, ptr %5, align 8
  %113 = load ptr, ptr %9, align 8
  %114 = call ptr %111(ptr noundef %112, ptr noundef %113, ptr noundef @.str.94, ptr noundef @.str.17)
  store ptr %114, ptr %10, align 8
  %115 = load ptr, ptr %10, align 8
  %116 = icmp eq ptr %115, null
  br i1 %116, label %117, label %118

117:                                              ; preds = %99
  store ptr null, ptr %4, align 8
  br label %223

118:                                              ; preds = %99
  %119 = load ptr, ptr %5, align 8
  %120 = load ptr, ptr %119, align 8
  %121 = getelementptr inbounds %struct.JNINativeInterface_, ptr %120, i32 0, i32 101
  %122 = load ptr, ptr %121, align 8
  %123 = load ptr, ptr %5, align 8
  %124 = load ptr, ptr %6, align 8
  %125 = load ptr, ptr %10, align 8
  %126 = call i64 %122(ptr noundef %123, ptr noundef %124, ptr noundef %125)
  store i64 %126, ptr %13, align 8
  %127 = load ptr, ptr %5, align 8
  %128 = load ptr, ptr %127, align 8
  %129 = getelementptr inbounds %struct.JNINativeInterface_, ptr %128, i32 0, i32 94
  %130 = load ptr, ptr %129, align 8
  %131 = load ptr, ptr %5, align 8
  %132 = load ptr, ptr %9, align 8
  %133 = call ptr %130(ptr noundef %131, ptr noundef %132, ptr noundef @.str.95, ptr noundef @.str.24)
  store ptr %133, ptr %10, align 8
  %134 = load ptr, ptr %10, align 8
  %135 = icmp eq ptr %134, null
  br i1 %135, label %136, label %137

136:                                              ; preds = %118
  store ptr null, ptr %4, align 8
  br label %223

137:                                              ; preds = %118
  %138 = load ptr, ptr %5, align 8
  %139 = load ptr, ptr %138, align 8
  %140 = getelementptr inbounds %struct.JNINativeInterface_, ptr %139, i32 0, i32 95
  %141 = load ptr, ptr %140, align 8
  %142 = load ptr, ptr %5, align 8
  %143 = load ptr, ptr %6, align 8
  %144 = load ptr, ptr %10, align 8
  %145 = call ptr %141(ptr noundef %142, ptr noundef %143, ptr noundef %144)
  store ptr %145, ptr %16, align 8
  %146 = call noalias ptr @calloc(i64 noundef 1, i64 noundef 72) #6
  store ptr %146, ptr %8, align 8
  %147 = load ptr, ptr %8, align 8
  %148 = icmp eq ptr %147, null
  br i1 %148, label %149, label %151

149:                                              ; preds = %137
  %150 = load ptr, ptr %5, align 8
  call void @p11ThrowOutOfMemoryError(ptr noundef %150, ptr noundef null)
  store ptr null, ptr %4, align 8
  br label %223

151:                                              ; preds = %137
  %152 = load i64, ptr %11, align 8
  %153 = load ptr, ptr %8, align 8
  %154 = getelementptr inbounds %struct.CK_X9_42_DH2_DERIVE_PARAMS, ptr %153, i32 0, i32 0
  store i64 %152, ptr %154, align 8
  %155 = load ptr, ptr %5, align 8
  %156 = load ptr, ptr %14, align 8
  %157 = load ptr, ptr %8, align 8
  %158 = getelementptr inbounds %struct.CK_X9_42_DH2_DERIVE_PARAMS, ptr %157, i32 0, i32 2
  %159 = load ptr, ptr %8, align 8
  %160 = getelementptr inbounds %struct.CK_X9_42_DH2_DERIVE_PARAMS, ptr %159, i32 0, i32 1
  call void @jByteArrayToCKByteArray(ptr noundef %155, ptr noundef %156, ptr noundef %158, ptr noundef %160)
  %161 = load ptr, ptr %5, align 8
  %162 = load ptr, ptr %161, align 8
  %163 = getelementptr inbounds %struct.JNINativeInterface_, ptr %162, i32 0, i32 228
  %164 = load ptr, ptr %163, align 8
  %165 = load ptr, ptr %5, align 8
  %166 = call zeroext i8 %164(ptr noundef %165)
  %167 = icmp ne i8 %166, 0
  br i1 %167, label %168, label %169

168:                                              ; preds = %151
  br label %212

169:                                              ; preds = %151
  %170 = load ptr, ptr %5, align 8
  %171 = load ptr, ptr %15, align 8
  %172 = load ptr, ptr %8, align 8
  %173 = getelementptr inbounds %struct.CK_X9_42_DH2_DERIVE_PARAMS, ptr %172, i32 0, i32 4
  %174 = load ptr, ptr %8, align 8
  %175 = getelementptr inbounds %struct.CK_X9_42_DH2_DERIVE_PARAMS, ptr %174, i32 0, i32 3
  call void @jByteArrayToCKByteArray(ptr noundef %170, ptr noundef %171, ptr noundef %173, ptr noundef %175)
  %176 = load ptr, ptr %5, align 8
  %177 = load ptr, ptr %176, align 8
  %178 = getelementptr inbounds %struct.JNINativeInterface_, ptr %177, i32 0, i32 228
  %179 = load ptr, ptr %178, align 8
  %180 = load ptr, ptr %5, align 8
  %181 = call zeroext i8 %179(ptr noundef %180)
  %182 = icmp ne i8 %181, 0
  br i1 %182, label %183, label %184

183:                                              ; preds = %169
  br label %212

184:                                              ; preds = %169
  %185 = load i64, ptr %12, align 8
  %186 = load ptr, ptr %8, align 8
  %187 = getelementptr inbounds %struct.CK_X9_42_DH2_DERIVE_PARAMS, ptr %186, i32 0, i32 5
  store i64 %185, ptr %187, align 8
  %188 = load i64, ptr %13, align 8
  %189 = load ptr, ptr %8, align 8
  %190 = getelementptr inbounds %struct.CK_X9_42_DH2_DERIVE_PARAMS, ptr %189, i32 0, i32 6
  store i64 %188, ptr %190, align 8
  %191 = load ptr, ptr %5, align 8
  %192 = load ptr, ptr %16, align 8
  %193 = load ptr, ptr %8, align 8
  %194 = getelementptr inbounds %struct.CK_X9_42_DH2_DERIVE_PARAMS, ptr %193, i32 0, i32 8
  %195 = load ptr, ptr %8, align 8
  %196 = getelementptr inbounds %struct.CK_X9_42_DH2_DERIVE_PARAMS, ptr %195, i32 0, i32 7
  call void @jByteArrayToCKByteArray(ptr noundef %191, ptr noundef %192, ptr noundef %194, ptr noundef %196)
  %197 = load ptr, ptr %5, align 8
  %198 = load ptr, ptr %197, align 8
  %199 = getelementptr inbounds %struct.JNINativeInterface_, ptr %198, i32 0, i32 228
  %200 = load ptr, ptr %199, align 8
  %201 = load ptr, ptr %5, align 8
  %202 = call zeroext i8 %200(ptr noundef %201)
  %203 = icmp ne i8 %202, 0
  br i1 %203, label %204, label %205

204:                                              ; preds = %184
  br label %212

205:                                              ; preds = %184
  %206 = load ptr, ptr %7, align 8
  %207 = icmp ne ptr %206, null
  br i1 %207, label %208, label %210

208:                                              ; preds = %205
  %209 = load ptr, ptr %7, align 8
  store i64 72, ptr %209, align 8
  br label %210

210:                                              ; preds = %208, %205
  %211 = load ptr, ptr %8, align 8
  store ptr %211, ptr %4, align 8
  br label %223

212:                                              ; preds = %204, %183, %168
  %213 = load ptr, ptr %8, align 8
  %214 = getelementptr inbounds %struct.CK_X9_42_DH2_DERIVE_PARAMS, ptr %213, i32 0, i32 2
  %215 = load ptr, ptr %214, align 8
  call void @free(ptr noundef %215) #7
  %216 = load ptr, ptr %8, align 8
  %217 = getelementptr inbounds %struct.CK_X9_42_DH2_DERIVE_PARAMS, ptr %216, i32 0, i32 4
  %218 = load ptr, ptr %217, align 8
  call void @free(ptr noundef %218) #7
  %219 = load ptr, ptr %8, align 8
  %220 = getelementptr inbounds %struct.CK_X9_42_DH2_DERIVE_PARAMS, ptr %219, i32 0, i32 8
  %221 = load ptr, ptr %220, align 8
  call void @free(ptr noundef %221) #7
  %222 = load ptr, ptr %8, align 8
  call void @free(ptr noundef %222) #7
  store ptr null, ptr %4, align 8
  br label %223

223:                                              ; preds = %212, %210, %149, %136, %117, %98, %79, %60, %41, %30
  %224 = load ptr, ptr %4, align 8
  ret ptr %224
}