; Function Attrs: nounwind uwtable
define hidden noundef ptr @jX942Dh2DeriveParamToCKX942Dh2DeriveParamPtr(ptr noundef %0, ptr noundef %1, ptr noundef writeonly %2) local_unnamed_addr #0 {
  %.not = icmp eq ptr %2, null
  br i1 %.not, label %5, label %4

4:                                                ; preds = %3
  store i64 0, ptr %2, align 8
  br label %5

5:                                                ; preds = %4, %3
  %6 = load ptr, ptr %0, align 8
  %7 = getelementptr inbounds i8, ptr %6, i64 48
  %8 = load ptr, ptr %7, align 8
  %9 = tail call ptr %8(ptr noundef nonnull %0, ptr noundef nonnull @.str.98) #8
  %10 = icmp eq ptr %9, null
  br i1 %10, label %106, label %11

11:                                               ; preds = %5
  %12 = load ptr, ptr %0, align 8
  %13 = getelementptr inbounds i8, ptr %12, i64 752
  %14 = load ptr, ptr %13, align 8
  %15 = tail call ptr %14(ptr noundef nonnull %0, ptr noundef nonnull %9, ptr noundef nonnull @.str.89, ptr noundef nonnull @.str.17) #8
  %16 = icmp eq ptr %15, null
  br i1 %16, label %106, label %17

17:                                               ; preds = %11
  %18 = load ptr, ptr %0, align 8
  %19 = getelementptr inbounds i8, ptr %18, i64 808
  %20 = load ptr, ptr %19, align 8
  %21 = tail call i64 %20(ptr noundef nonnull %0, ptr noundef %1, ptr noundef nonnull %15) #8
  %22 = load ptr, ptr %0, align 8
  %23 = getelementptr inbounds i8, ptr %22, i64 752
  %24 = load ptr, ptr %23, align 8
  %25 = tail call ptr %24(ptr noundef nonnull %0, ptr noundef nonnull %9, ptr noundef nonnull @.str.97, ptr noundef nonnull @.str.24) #8
  %26 = icmp eq ptr %25, null
  br i1 %26, label %106, label %27

27:                                               ; preds = %17
  %28 = load ptr, ptr %0, align 8
  %29 = getelementptr inbounds i8, ptr %28, i64 760
  %30 = load ptr, ptr %29, align 8
  %31 = tail call ptr %30(ptr noundef nonnull %0, ptr noundef %1, ptr noundef nonnull %25) #8
  %32 = load ptr, ptr %0, align 8
  %33 = getelementptr inbounds i8, ptr %32, i64 752
  %34 = load ptr, ptr %33, align 8
  %35 = tail call ptr %34(ptr noundef nonnull %0, ptr noundef nonnull %9, ptr noundef nonnull @.str.91, ptr noundef nonnull @.str.24) #8
  %36 = icmp eq ptr %35, null
  br i1 %36, label %106, label %37

37:                                               ; preds = %27
  %38 = load ptr, ptr %0, align 8
  %39 = getelementptr inbounds i8, ptr %38, i64 760
  %40 = load ptr, ptr %39, align 8
  %41 = tail call ptr %40(ptr noundef nonnull %0, ptr noundef %1, ptr noundef nonnull %35) #8
  %42 = load ptr, ptr %0, align 8
  %43 = getelementptr inbounds i8, ptr %42, i64 752
  %44 = load ptr, ptr %43, align 8
  %45 = tail call ptr %44(ptr noundef nonnull %0, ptr noundef nonnull %9, ptr noundef nonnull @.str.93, ptr noundef nonnull @.str.17) #8
  %46 = icmp eq ptr %45, null
  br i1 %46, label %106, label %47

47:                                               ; preds = %37
  %48 = load ptr, ptr %0, align 8
  %49 = getelementptr inbounds i8, ptr %48, i64 808
  %50 = load ptr, ptr %49, align 8
  %51 = tail call i64 %50(ptr noundef nonnull %0, ptr noundef %1, ptr noundef nonnull %45) #8
  %52 = load ptr, ptr %0, align 8
  %53 = getelementptr inbounds i8, ptr %52, i64 752
  %54 = load ptr, ptr %53, align 8
  %55 = tail call ptr %54(ptr noundef nonnull %0, ptr noundef nonnull %9, ptr noundef nonnull @.str.94, ptr noundef nonnull @.str.17) #8
  %56 = icmp eq ptr %55, null
  br i1 %56, label %106, label %57

57:                                               ; preds = %47
  %58 = load ptr, ptr %0, align 8
  %59 = getelementptr inbounds i8, ptr %58, i64 808
  %60 = load ptr, ptr %59, align 8
  %61 = tail call i64 %60(ptr noundef nonnull %0, ptr noundef %1, ptr noundef nonnull %55) #8
  %62 = load ptr, ptr %0, align 8
  %63 = getelementptr inbounds i8, ptr %62, i64 752
  %64 = load ptr, ptr %63, align 8
  %65 = tail call ptr %64(ptr noundef nonnull %0, ptr noundef nonnull %9, ptr noundef nonnull @.str.95, ptr noundef nonnull @.str.24) #8
  %66 = icmp eq ptr %65, null
  br i1 %66, label %106, label %67

67:                                               ; preds = %57
  %68 = load ptr, ptr %0, align 8
  %69 = getelementptr inbounds i8, ptr %68, i64 760
  %70 = load ptr, ptr %69, align 8
  %71 = tail call ptr %70(ptr noundef nonnull %0, ptr noundef %1, ptr noundef nonnull %65) #8
  %72 = tail call noalias dereferenceable_or_null(72) ptr @calloc(i64 noundef 1, i64 noundef 72) #9
  %73 = icmp eq ptr %72, null
  br i1 %73, label %74, label %75

74:                                               ; preds = %67
  tail call void @p11ThrowOutOfMemoryError(ptr noundef nonnull %0, ptr noundef null) #8
  br label %106

75:                                               ; preds = %67
  store i64 %21, ptr %72, align 8
  %76 = getelementptr inbounds i8, ptr %72, i64 16
  %77 = getelementptr inbounds i8, ptr %72, i64 8
  tail call void @jByteArrayToCKByteArray(ptr noundef nonnull %0, ptr noundef %31, ptr noundef nonnull %76, ptr noundef nonnull %77) #8
  %78 = load ptr, ptr %0, align 8
  %79 = getelementptr inbounds i8, ptr %78, i64 1824
  %80 = load ptr, ptr %79, align 8
  %81 = tail call zeroext i8 %80(ptr noundef nonnull %0) #8
  %.not95 = icmp eq i8 %81, 0
  br i1 %.not95, label %82, label %100

82:                                               ; preds = %75
  %83 = getelementptr inbounds i8, ptr %72, i64 32
  %84 = getelementptr inbounds i8, ptr %72, i64 24
  tail call void @jByteArrayToCKByteArray(ptr noundef nonnull %0, ptr noundef %41, ptr noundef nonnull %83, ptr noundef nonnull %84) #8
  %85 = load ptr, ptr %0, align 8
  %86 = getelementptr inbounds i8, ptr %85, i64 1824
  %87 = load ptr, ptr %86, align 8
  %88 = tail call zeroext i8 %87(ptr noundef nonnull %0) #8
  %.not96 = icmp eq i8 %88, 0
  br i1 %.not96, label %89, label %100

89:                                               ; preds = %82
  %90 = getelementptr inbounds i8, ptr %72, i64 40
  store i64 %51, ptr %90, align 8
  %91 = getelementptr inbounds i8, ptr %72, i64 48
  store i64 %61, ptr %91, align 8
  %92 = getelementptr inbounds i8, ptr %72, i64 64
  %93 = getelementptr inbounds i8, ptr %72, i64 56
  tail call void @jByteArrayToCKByteArray(ptr noundef nonnull %0, ptr noundef %71, ptr noundef nonnull %92, ptr noundef nonnull %93) #8
  %94 = load ptr, ptr %0, align 8
  %95 = getelementptr inbounds i8, ptr %94, i64 1824
  %96 = load ptr, ptr %95, align 8
  %97 = tail call zeroext i8 %96(ptr noundef nonnull %0) #8
  %.not97 = icmp eq i8 %97, 0
  br i1 %.not97, label %98, label %100

98:                                               ; preds = %89
  br i1 %.not, label %106, label %99

99:                                               ; preds = %98
  store i64 72, ptr %2, align 8
  br label %106

100:                                              ; preds = %89, %82, %75
  %101 = load ptr, ptr %76, align 8
  tail call void @free(ptr noundef %101) #8
  %102 = getelementptr inbounds i8, ptr %72, i64 32
  %103 = load ptr, ptr %102, align 8
  tail call void @free(ptr noundef %103) #8
  %104 = getelementptr inbounds i8, ptr %72, i64 64
  %105 = load ptr, ptr %104, align 8
  tail call void @free(ptr noundef %105) #8
  tail call void @free(ptr noundef nonnull %72) #8
  br label %106

106:                                              ; preds = %98, %99, %57, %47, %37, %27, %17, %11, %5, %100, %74
  %.0 = phi ptr [ null, %74 ], [ null, %100 ], [ null, %5 ], [ null, %11 ], [ null, %17 ], [ null, %27 ], [ null, %37 ], [ null, %47 ], [ null, %57 ], [ %72, %99 ], [ %72, %98 ]
  ret ptr %.0
}